target datalayout = "e-m:e-p270:32:32-p271:32:32-p272:64:64-i64:64-i128:128-f80:128-n8:16:32:64-S128"
target triple = "x86_64-pc-linux-gnu"

; Function Attrs: mustprogress nounwind uwtable
define internal noundef i32 @_ZL14getProfileKindN4llvm3ARM8ArchKindE(i32 noundef %0) #0 {
  %2 = alloca i32, align 4
  %3 = alloca i32, align 4
  store i32 %0, ptr %3, align 4
  %4 = load i32, ptr %3, align 4
  switch i32 %4, label %9 [
    i32 10, label %5
    i32 14, label %5
    i32 15, label %5
    i32 34, label %5
    i32 33, label %5
    i32 35, label %5
    i32 13, label %6
    i32 32, label %6
    i32 11, label %7
    i32 12, label %7
    i32 40, label %7
    i32 16, label %7
    i32 17, label %7
    i32 18, label %7
    i32 19, label %7
    i32 20, label %7
    i32 21, label %7
    i32 22, label %7
    i32 23, label %7
    i32 24, label %7
    i32 25, label %7
    i32 26, label %7
    i32 27, label %7
    i32 28, label %7
    i32 29, label %7
    i32 30, label %7
    i32 31, label %7
    i32 1, label %8
    i32 2, label %8
    i32 3, label %8
    i32 4, label %8
    i32 5, label %8
    i32 6, label %8
    i32 7, label %8
    i32 8, label %8
    i32 9, label %8
    i32 39, label %8
    i32 36, label %8
    i32 37, label %8
    i32 38, label %8
    i32 0, label %8
  ]

5:                                                ; preds = %1, %1, %1, %1, %1, %1
  store i32 3, ptr %2, align 4
  br label %10

6:                                                ; preds = %1, %1
  store i32 2, ptr %2, align 4
  br label %10

7:                                                ; preds = %1, %1, %1, %1, %1, %1, %1, %1, %1, %1, %1, %1, %1, %1, %1, %1, %1, %1, %1
  store i32 1, ptr %2, align 4
  br label %10

8:                                                ; preds = %1, %1, %1, %1, %1, %1, %1, %1, %1, %1, %1, %1, %1, %1
  store i32 0, ptr %2, align 4
  br label %10

9:                                                ; preds = %1
  unreachable

10:                                               ; preds = %8, %7, %6, %5
  %11 = load i32, ptr %2, align 4
  ret i32 %11
}

; Function Attrs: mustprogress nounwind uwtable
define dso_local noundef i32 @_ZN4llvm3ARM13convertV9toV8ENS0_8ArchKindE(i32 noundef %0) #0 {
  %2 = alloca i32, align 4
  %3 = alloca i32, align 4
  %4 = alloca i32, align 4
  store i32 %0, ptr %3, align 4
  %5 = load i32, ptr %3, align 4
  %6 = call noundef i32 @_ZL14getProfileKindN4llvm3ARM8ArchKindE(i32 noundef %5)
  %7 = icmp ne i32 %6, 1
  br i1 %7, label %8, label %9

8:                                                ; preds = %1
  store i32 0, ptr %2, align 4
  br label %22

9:                                                ; preds = %1
  %10 = load i32, ptr %3, align 4
  %11 = icmp slt i32 %10, 26
  br i1 %11, label %15, label %12

12:                                               ; preds = %9
  %13 = load i32, ptr %3, align 4
  %14 = icmp sgt i32 %13, 29
  br i1 %14, label %15, label %16

15:                                               ; preds = %12, %9
  store i32 0, ptr %2, align 4
  br label %22

16:                                               ; preds = %12
  store i32 21, ptr %4, align 4
  %17 = load i32, ptr %3, align 4
  %18 = sub i32 %17, 26
  %19 = load i32, ptr %4, align 4
  %20 = add i32 %19, %18
  store i32 %20, ptr %4, align 4
  %21 = load i32, ptr %4, align 4
  store i32 %21, ptr %2, align 4
  br label %22

22:                                               ; preds = %16, %15, %8
  %23 = load i32, ptr %2, align 4
  ret i32 %23
}