; Function Attrs: mustprogress nofree norecurse nosync nounwind willreturn memory(none) uwtable
define dso_local noundef range(i32 0, 25) i32 @_ZN4llvm3ARM13convertV9toV8ENS0_8ArchKindE(i32 noundef %0) local_unnamed_addr #5 {
switch.lookup:
  %switch.cast = zext nneg i32 %0 to i41
  %switch.downshift = lshr i41 1095216719871, %switch.cast
  %switch.masked = trunc i41 %switch.downshift to i1
  %1 = add nsw i32 %0, -30
  %or.cond = icmp ult i32 %1, -4
  %or.cond9 = or i1 %or.cond, %switch.masked
  %2 = add nsw i32 %0, -5
  %.0 = select i1 %or.cond9, i32 0, i32 %2
  ret i32 %.0
}